target datalayout = "e-m:e-p270:32:32-p271:32:32-p272:64:64-i64:64-i128:128-f80:128-n8:16:32:64-S128"
target triple = "x86_64-pc-linux-gnu"

; Function Attrs: alwaysinline mustprogress nounwind uwtable
define internal noundef i32 @_ZN13duckdb_brotliL16Log2FloorNonZeroEm(i64 noundef %0) #6 {
  %2 = alloca i64, align 8
  store i64 %0, ptr %2, align 8, !tbaa !8
  %3 = load i64, ptr %2, align 8, !tbaa !8
  %4 = trunc i64 %3 to i32
  %5 = call i32 @llvm.ctlz.i32(i32 %4, i1 true)
  %6 = xor i32 31, %5
  ret i32 %6
}

; Function Attrs: alwaysinline mustprogress nounwind uwtable
define internal void @_ZL22BrotliUnalignedWrite64Pvm(ptr noundef %0, i64 noundef %1) #6 {
  %3 = alloca ptr, align 8
  %4 = alloca i64, align 8
  store ptr %0, ptr %3, align 8, !tbaa !43
  store i64 %1, ptr %4, align 8, !tbaa !8
  %5 = load ptr, ptr %3, align 8, !tbaa !43
  call void @llvm.memcpy.p0.p0.i64(ptr align 1 %5, ptr align 8 %4, i64 8, i1 false)
  ret void
}

; Function Attrs: mustprogress uwtable
define internal void @_ZL16BrotliEncodeMlenmPmS_S_(i64 noundef %0, ptr noundef %1, ptr noundef %2, ptr noundef %3) #0 {
  %5 = alloca i64, align 8
  %6 = alloca ptr, align 8
  %7 = alloca ptr, align 8
  %8 = alloca ptr, align 8
  %9 = alloca i64, align 8
  %10 = alloca i64, align 8
  store i64 %0, ptr %5, align 8, !tbaa !8
  store ptr %1, ptr %6, align 8, !tbaa !12
  store ptr %2, ptr %7, align 8, !tbaa !12
  store ptr %3, ptr %8, align 8, !tbaa !12
  call void @llvm.lifetime.start.p0(i64 8, ptr %9) #10
  %11 = load i64, ptr %5, align 8, !tbaa !8
  %12 = icmp eq i64 %11, 1
  br i1 %12, label %13, label %14

13:                                               ; preds = %4
  br label %21

14:                                               ; preds = %4
  %15 = load i64, ptr %5, align 8, !tbaa !8
  %16 = sub i64 %15, 1
  %17 = trunc i64 %16 to i32
  %18 = zext i32 %17 to i64
  %19 = call noundef i32 @_ZN13duckdb_brotliL16Log2FloorNonZeroEm(i64 noundef %18)
  %20 = add i32 %19, 1
  br label %21

21:                                               ; preds = %14, %13
  %22 = phi i32 [ 1, %13 ], [ %20, %14 ]
  %23 = zext i32 %22 to i64
  store i64 %23, ptr %9, align 8, !tbaa !8
  call void @llvm.lifetime.start.p0(i64 8, ptr %10) #10
  %24 = load i64, ptr %9, align 8, !tbaa !8
  %25 = icmp ult i64 %24, 16
  br i1 %25, label %26, label %27

26:                                               ; preds = %21
  br label %30

27:                                               ; preds = %21
  %28 = load i64, ptr %9, align 8, !tbaa !8
  %29 = add i64 %28, 3
  br label %30

30:                                               ; preds = %27, %26
  %31 = phi i64 [ 16, %26 ], [ %29, %27 ]
  %32 = udiv i64 %31, 4
  store i64 %32, ptr %10, align 8, !tbaa !8
  %33 = load i64, ptr %10, align 8, !tbaa !8
  %34 = sub i64 %33, 4
  %35 = load ptr, ptr %8, align 8, !tbaa !12
  store i64 %34, ptr %35, align 8, !tbaa !8
  %36 = load i64, ptr %10, align 8, !tbaa !8
  %37 = mul i64 %36, 4
  %38 = load ptr, ptr %7, align 8, !tbaa !12
  store i64 %37, ptr %38, align 8, !tbaa !8
  %39 = load i64, ptr %5, align 8, !tbaa !8
  %40 = sub i64 %39, 1
  %41 = load ptr, ptr %6, align 8, !tbaa !12
  store i64 %40, ptr %41, align 8, !tbaa !8
  call void @llvm.lifetime.end.p0(i64 8, ptr %10) #10
  call void @llvm.lifetime.end.p0(i64 8, ptr %9) #10
  ret void
}

; Function Attrs: alwaysinline mustprogress uwtable
define internal void @_ZN13duckdb_brotliL15BrotliWriteBitsEmmPmPh(i64 noundef %0, i64 noundef %1, ptr noalias noundef %2, ptr noalias noundef %3) #4 {
  %5 = alloca i64, align 8
  %6 = alloca i64, align 8
  %7 = alloca ptr, align 8
  %8 = alloca ptr, align 8
  %9 = alloca ptr, align 8
  %10 = alloca i64, align 8
  store i64 %0, ptr %5, align 8, !tbaa !8
  store i64 %1, ptr %6, align 8, !tbaa !8
  store ptr %2, ptr %7, align 8, !tbaa !12
  store ptr %3, ptr %8, align 8, !tbaa !3
  call void @llvm.lifetime.start.p0(i64 8, ptr %9) #10
  %11 = load ptr, ptr %8, align 8, !tbaa !3
  %12 = load ptr, ptr %7, align 8, !tbaa !12
  %13 = load i64, ptr %12, align 8, !tbaa !8
  %14 = lshr i64 %13, 3
  %15 = getelementptr inbounds nuw i8, ptr %11, i64 %14
  store ptr %15, ptr %9, align 8, !tbaa !3
  call void @llvm.lifetime.start.p0(i64 8, ptr %10) #10
  %16 = load ptr, ptr %9, align 8, !tbaa !3
  %17 = load i8, ptr %16, align 1, !tbaa !16
  %18 = zext i8 %17 to i64
  store i64 %18, ptr %10, align 8, !tbaa !8
  %19 = load i64, ptr %6, align 8, !tbaa !8
  %20 = load ptr, ptr %7, align 8, !tbaa !12
  %21 = load i64, ptr %20, align 8, !tbaa !8
  %22 = and i64 %21, 7
  %23 = shl i64 %19, %22
  %24 = load i64, ptr %10, align 8, !tbaa !8
  %25 = or i64 %24, %23
  store i64 %25, ptr %10, align 8, !tbaa !8
  %26 = load ptr, ptr %9, align 8, !tbaa !3
  %27 = load i64, ptr %10, align 8, !tbaa !8
  call void @_ZL22BrotliUnalignedWrite64Pvm(ptr noundef %26, i64 noundef %27)
  %28 = load i64, ptr %5, align 8, !tbaa !8
  %29 = load ptr, ptr %7, align 8, !tbaa !12
  %30 = load i64, ptr %29, align 8, !tbaa !8
  %31 = add i64 %30, %28
  store i64 %31, ptr %29, align 8, !tbaa !8
  call void @llvm.lifetime.end.p0(i64 8, ptr %10) #10
  call void @llvm.lifetime.end.p0(i64 8, ptr %9) #10
  ret void
}

; Function Attrs: mustprogress uwtable
define internal void @_ZL30StoreCompressedMetaBlockHeaderimPmPh(i32 noundef %0, i64 noundef %1, ptr noundef %2, ptr noundef %3) #0 {
  %5 = alloca i32, align 4
  %6 = alloca i64, align 8
  %7 = alloca ptr, align 8
  %8 = alloca ptr, align 8
  %9 = alloca i64, align 8
  %10 = alloca i64, align 8
  %11 = alloca i64, align 8
  store i32 %0, ptr %5, align 4, !tbaa !14
  store i64 %1, ptr %6, align 8, !tbaa !8
  store ptr %2, ptr %7, align 8, !tbaa !12
  store ptr %3, ptr %8, align 8, !tbaa !3
  call void @llvm.lifetime.start.p0(i64 8, ptr %9) #10
  call void @llvm.lifetime.start.p0(i64 8, ptr %10) #10
  call void @llvm.lifetime.start.p0(i64 8, ptr %11) #10
  %12 = load i32, ptr %5, align 4, !tbaa !14
  %13 = sext i32 %12 to i64
  %14 = load ptr, ptr %7, align 8, !tbaa !12
  %15 = load ptr, ptr %8, align 8, !tbaa !3
  call void @_ZN13duckdb_brotliL15BrotliWriteBitsEmmPmPh(i64 noundef 1, i64 noundef %13, ptr noundef %14, ptr noundef %15)
  %16 = load i32, ptr %5, align 4, !tbaa !14
  %17 = icmp ne i32 %16, 0
  br i1 %17, label %18, label %21

18:                                               ; preds = %4
  %19 = load ptr, ptr %7, align 8, !tbaa !12
  %20 = load ptr, ptr %8, align 8, !tbaa !3
  call void @_ZN13duckdb_brotliL15BrotliWriteBitsEmmPmPh(i64 noundef 1, i64 noundef 0, ptr noundef %19, ptr noundef %20)
  br label %21

21:                                               ; preds = %18, %4
  %22 = load i64, ptr %6, align 8, !tbaa !8
  call void @_ZL16BrotliEncodeMlenmPmS_S_(i64 noundef %22, ptr noundef %9, ptr noundef %10, ptr noundef %11)
  %23 = load i64, ptr %11, align 8, !tbaa !8
  %24 = load ptr, ptr %7, align 8, !tbaa !12
  %25 = load ptr, ptr %8, align 8, !tbaa !3
  call void @_ZN13duckdb_brotliL15BrotliWriteBitsEmmPmPh(i64 noundef 2, i64 noundef %23, ptr noundef %24, ptr noundef %25)
  %26 = load i64, ptr %10, align 8, !tbaa !8
  %27 = load i64, ptr %9, align 8, !tbaa !8
  %28 = load ptr, ptr %7, align 8, !tbaa !12
  %29 = load ptr, ptr %8, align 8, !tbaa !3
  call void @_ZN13duckdb_brotliL15BrotliWriteBitsEmmPmPh(i64 noundef %26, i64 noundef %27, ptr noundef %28, ptr noundef %29)
  %30 = load i32, ptr %5, align 4, !tbaa !14
  %31 = icmp ne i32 %30, 0
  br i1 %31, label %35, label %32

32:                                               ; preds = %21
  %33 = load ptr, ptr %7, align 8, !tbaa !12
  %34 = load ptr, ptr %8, align 8, !tbaa !3
  call void @_ZN13duckdb_brotliL15BrotliWriteBitsEmmPmPh(i64 noundef 1, i64 noundef 0, ptr noundef %33, ptr noundef %34)
  br label %35

35:                                               ; preds = %32, %21
  call void @llvm.lifetime.end.p0(i64 8, ptr %11) #10
  call void @llvm.lifetime.end.p0(i64 8, ptr %10) #10
  call void @llvm.lifetime.end.p0(i64 8, ptr %9) #10
  ret void
}