; Function Attrs: mustprogress nofree norecurse nosync nounwind willreturn memory(argmem: readwrite, inaccessiblemem: readwrite) uwtable
define internal fastcc void @_ZL30StoreCompressedMetaBlockHeaderimPmPh(i32 noundef %0, i64 noundef %1, ptr noundef captures(none) %2, ptr noundef captures(none) %3) unnamed_addr #5 {
  %5 = sext i32 %0 to i64
  tail call void @llvm.experimental.noalias.scope.decl(metadata !314)
  tail call void @llvm.experimental.noalias.scope.decl(metadata !317)
  %6 = load i64, ptr %2, align 8, !tbaa !3, !alias.scope !314, !noalias !317
  %7 = lshr i64 %6, 3
  %8 = getelementptr inbounds nuw i8, ptr %3, i64 %7
  %9 = load i8, ptr %8, align 1, !tbaa !7, !alias.scope !317, !noalias !314
  %10 = zext i8 %9 to i64
  %11 = and i64 %6, 7
  %12 = shl nsw i64 %5, %11
  %13 = or i64 %12, %10
  store i64 %13, ptr %8, align 1, !noalias !314
  %14 = add i64 %6, 1
  store i64 %14, ptr %2, align 8, !tbaa !3, !alias.scope !314, !noalias !317
  %.not = icmp eq i32 %0, 0
  br i1 %.not, label %.critedge, label %15

15:                                               ; preds = %4
  tail call void @llvm.experimental.noalias.scope.decl(metadata !319)
  tail call void @llvm.experimental.noalias.scope.decl(metadata !322)
  %16 = lshr i64 %14, 3
  %17 = getelementptr inbounds nuw i8, ptr %3, i64 %16
  %18 = load i8, ptr %17, align 1, !tbaa !7, !alias.scope !322, !noalias !319
  %19 = zext i8 %18 to i64
  store i64 %19, ptr %17, align 1, !noalias !319
  %20 = add i64 %6, 2
  store i64 %20, ptr %2, align 8, !tbaa !3, !alias.scope !319, !noalias !322
  %21 = icmp eq i64 %1, 1
  br i1 %21, label %.thread.i, label %22

22:                                               ; preds = %15
  %23 = trunc i64 %1 to i32
  %24 = add i32 %23, -1
  %25 = tail call range(i32 0, 33) i32 @llvm.ctlz.i32(i32 %24, i1 true)
  %26 = icmp ult i32 %24, 32768
  %narrow.i = sub nuw nsw i32 35, %25
  %27 = lshr i32 %narrow.i, 2
  %28 = zext nneg i32 %27 to i64
  br i1 %26, label %.thread.i, label %_ZL16BrotliEncodeMlenmPmS_S_.exit

.thread.i:                                        ; preds = %22, %15
  br label %_ZL16BrotliEncodeMlenmPmS_S_.exit

_ZL16BrotliEncodeMlenmPmS_S_.exit:                ; preds = %22, %.thread.i
  %29 = phi i64 [ 4, %.thread.i ], [ %28, %22 ]
  %30 = add nsw i64 %29, -4
  %31 = shl nuw nsw i64 %29, 2
  %32 = add i64 %1, -1
  tail call void @llvm.experimental.noalias.scope.decl(metadata !324)
  tail call void @llvm.experimental.noalias.scope.decl(metadata !327)
  %33 = lshr i64 %20, 3
  %34 = getelementptr inbounds nuw i8, ptr %3, i64 %33
  %35 = load i8, ptr %34, align 1, !tbaa !7, !alias.scope !327, !noalias !324
  %36 = zext i8 %35 to i64
  %37 = and i64 %20, 7
  %38 = shl nsw i64 %30, %37
  %39 = or i64 %38, %36
  store i64 %39, ptr %34, align 1, !noalias !324
  %40 = add i64 %6, 4
  store i64 %40, ptr %2, align 8, !tbaa !3, !alias.scope !324, !noalias !327
  %41 = lshr i64 %40, 3
  %42 = getelementptr inbounds nuw i8, ptr %3, i64 %41
  %43 = load i8, ptr %42, align 1, !tbaa !7, !alias.scope !329, !noalias !332
  %44 = zext i8 %43 to i64
  %45 = and i64 %40, 7
  %46 = shl i64 %32, %45
  %47 = or i64 %46, %44
  store i64 %47, ptr %42, align 1, !noalias !332
  %48 = add i64 %31, %40
  br label %82

.critedge:                                        ; preds = %4
  %49 = icmp eq i64 %1, 1
  br i1 %49, label %.thread.i14, label %50

50:                                               ; preds = %.critedge
  %51 = trunc i64 %1 to i32
  %52 = add i32 %51, -1
  %53 = tail call range(i32 0, 33) i32 @llvm.ctlz.i32(i32 %52, i1 true)
  %54 = icmp ult i32 %52, 32768
  %narrow.i13 = sub nuw nsw i32 35, %53
  %55 = lshr i32 %narrow.i13, 2
  %56 = zext nneg i32 %55 to i64
  br i1 %54, label %.thread.i14, label %_ZL16BrotliEncodeMlenmPmS_S_.exit15

.thread.i14:                                      ; preds = %50, %.critedge
  br label %_ZL16BrotliEncodeMlenmPmS_S_.exit15

_ZL16BrotliEncodeMlenmPmS_S_.exit15:              ; preds = %50, %.thread.i14
  %57 = phi i64 [ 4, %.thread.i14 ], [ %56, %50 ]
  %58 = add nsw i64 %57, -4
  %59 = shl nuw nsw i64 %57, 2
  %60 = add i64 %1, -1
  tail call void @llvm.experimental.noalias.scope.decl(metadata !334)
  tail call void @llvm.experimental.noalias.scope.decl(metadata !337)
  %61 = lshr i64 %14, 3
  %62 = getelementptr inbounds nuw i8, ptr %3, i64 %61
  %63 = load i8, ptr %62, align 1, !tbaa !7, !alias.scope !337, !noalias !334
  %64 = zext i8 %63 to i64
  %65 = and i64 %14, 7
  %66 = shl nsw i64 %58, %65
  %67 = or i64 %66, %64
  store i64 %67, ptr %62, align 1, !noalias !334
  %68 = add i64 %6, 3
  store i64 %68, ptr %2, align 8, !tbaa !3, !alias.scope !334, !noalias !337
  tail call void @llvm.experimental.noalias.scope.decl(metadata !339)
  tail call void @llvm.experimental.noalias.scope.decl(metadata !342)
  %69 = lshr i64 %68, 3
  %70 = getelementptr inbounds nuw i8, ptr %3, i64 %69
  %71 = load i8, ptr %70, align 1, !tbaa !7, !alias.scope !342, !noalias !339
  %72 = zext i8 %71 to i64
  %73 = and i64 %68, 7
  %74 = shl i64 %60, %73
  %75 = or i64 %74, %72
  store i64 %75, ptr %70, align 1, !noalias !339
  %76 = add i64 %59, %68
  store i64 %76, ptr %2, align 8, !tbaa !3, !alias.scope !339, !noalias !342
  %77 = lshr i64 %76, 3
  %78 = getelementptr inbounds nuw i8, ptr %3, i64 %77
  %79 = load i8, ptr %78, align 1, !tbaa !7, !alias.scope !344, !noalias !347
  %80 = zext i8 %79 to i64
  store i64 %80, ptr %78, align 1, !noalias !347
  %81 = add i64 %76, 1
  br label %82

82:                                               ; preds = %_ZL16BrotliEncodeMlenmPmS_S_.exit, %_ZL16BrotliEncodeMlenmPmS_S_.exit15
  %storemerge = phi i64 [ %48, %_ZL16BrotliEncodeMlenmPmS_S_.exit ], [ %81, %_ZL16BrotliEncodeMlenmPmS_S_.exit15 ]
  store i64 %storemerge, ptr %2, align 8, !tbaa !3, !noalias !151
  ret void
}